#include <math.h>
#include <stdio.h>
#include <stdlib.h>
#include <string.h>

void main()
{
    int i;
    char c[100];
    gets(c);
    for(i=0;c[i]!='\0';i++)
    {
        if(c[i]=='\t'&&c[i+1]!='\t'&&c[i+1]!=' ') printf(" ");
        else if((c[i]!=' '&&c[i]!='\t')||(c[i]==' '&&c[i+1]!=' '&&c[i+1]!='\t'))
        printf("%c",c[i]);
    }
}

