; ModuleID = '26/151.c'
source_filename = "26/151.c"
target datalayout = "e-m:e-p270:32:32-p271:32:32-p272:64:64-i64:64-f80:128-n8:16:32:64-S128"
target triple = "x86_64-pc-linux-gnu"

@.str = private unnamed_addr constant [2 x i8] c" \00", align 1
@.str.1 = private unnamed_addr constant [3 x i8] c"%c\00", align 1

; Function Attrs: noinline nounwind uwtable
define dso_local void @main() #0 {
  %1 = alloca i32, align 4
  %2 = alloca [100 x i8], align 16
  %3 = getelementptr inbounds [100 x i8], [100 x i8]* %2, i64 0, i64 0
  %4 = call i32 (i8*, ...) bitcast (i32 (...)* @gets to i32 (i8*, ...)*)(i8* %3)
  store i32 0, i32* %1, align 4
  br label %5

5:                                                ; preds = %83, %0
  %6 = load i32, i32* %1, align 4
  %7 = sext i32 %6 to i64
  %8 = getelementptr inbounds [100 x i8], [100 x i8]* %2, i64 0, i64 %7
  %9 = load i8, i8* %8, align 1
  %10 = sext i8 %9 to i32
  %11 = icmp ne i32 %10, 0
  br i1 %11, label %12, label %86

12:                                               ; preds = %5
  %13 = load i32, i32* %1, align 4
  %14 = sext i32 %13 to i64
  %15 = getelementptr inbounds [100 x i8], [100 x i8]* %2, i64 0, i64 %14
  %16 = load i8, i8* %15, align 1
  %17 = sext i8 %16 to i32
  %18 = icmp eq i32 %17, 9
  br i1 %18, label %19, label %37

19:                                               ; preds = %12
  %20 = load i32, i32* %1, align 4
  %21 = add nsw i32 %20, 1
  %22 = sext i32 %21 to i64
  %23 = getelementptr inbounds [100 x i8], [100 x i8]* %2, i64 0, i64 %22
  %24 = load i8, i8* %23, align 1
  %25 = sext i8 %24 to i32
  %26 = icmp ne i32 %25, 9
  br i1 %26, label %27, label %37

27:                                               ; preds = %19
  %28 = load i32, i32* %1, align 4
  %29 = add nsw i32 %28, 1
  %30 = sext i32 %29 to i64
  %31 = getelementptr inbounds [100 x i8], [100 x i8]* %2, i64 0, i64 %30
  %32 = load i8, i8* %31, align 1
  %33 = sext i8 %32 to i32
  %34 = icmp ne i32 %33, 32
  br i1 %34, label %35, label %37

35:                                               ; preds = %27
  %36 = call i32 (i8*, ...) @printf(i8* getelementptr inbounds ([2 x i8], [2 x i8]* @.str, i64 0, i64 0))
  br label %82

37:                                               ; preds = %27, %19, %12
  %38 = load i32, i32* %1, align 4
  %39 = sext i32 %38 to i64
  %40 = getelementptr inbounds [100 x i8], [100 x i8]* %2, i64 0, i64 %39
  %41 = load i8, i8* %40, align 1
  %42 = sext i8 %41 to i32
  %43 = icmp ne i32 %42, 32
  br i1 %43, label %44, label %51

44:                                               ; preds = %37
  %45 = load i32, i32* %1, align 4
  %46 = sext i32 %45 to i64
  %47 = getelementptr inbounds [100 x i8], [100 x i8]* %2, i64 0, i64 %46
  %48 = load i8, i8* %47, align 1
  %49 = sext i8 %48 to i32
  %50 = icmp ne i32 %49, 9
  br i1 %50, label %74, label %51

51:                                               ; preds = %44, %37
  %52 = load i32, i32* %1, align 4
  %53 = sext i32 %52 to i64
  %54 = getelementptr inbounds [100 x i8], [100 x i8]* %2, i64 0, i64 %53
  %55 = load i8, i8* %54, align 1
  %56 = sext i8 %55 to i32
  %57 = icmp eq i32 %56, 32
  br i1 %57, label %58, label %81

58:                                               ; preds = %51
  %59 = load i32, i32* %1, align 4
  %60 = add nsw i32 %59, 1
  %61 = sext i32 %60 to i64
  %62 = getelementptr inbounds [100 x i8], [100 x i8]* %2, i64 0, i64 %61
  %63 = load i8, i8* %62, align 1
  %64 = sext i8 %63 to i32
  %65 = icmp ne i32 %64, 32
  br i1 %65, label %66, label %81

66:                                               ; preds = %58
  %67 = load i32, i32* %1, align 4
  %68 = add nsw i32 %67, 1
  %69 = sext i32 %68 to i64
  %70 = getelementptr inbounds [100 x i8], [100 x i8]* %2, i64 0, i64 %69
  %71 = load i8, i8* %70, align 1
  %72 = sext i8 %71 to i32
  %73 = icmp ne i32 %72, 9
  br i1 %73, label %74, label %81

74:                                               ; preds = %66, %44
  %75 = load i32, i32* %1, align 4
  %76 = sext i32 %75 to i64
  %77 = getelementptr inbounds [100 x i8], [100 x i8]* %2, i64 0, i64 %76
  %78 = load i8, i8* %77, align 1
  %79 = sext i8 %78 to i32
  %80 = call i32 (i8*, ...) @printf(i8* getelementptr inbounds ([3 x i8], [3 x i8]* @.str.1, i64 0, i64 0), i32 %79)
  br label %81

81:                                               ; preds = %74, %66, %58, %51
  br label %82

82:                                               ; preds = %81, %35
  br label %83

83:                                               ; preds = %82
  %84 = load i32, i32* %1, align 4
  %85 = add nsw i32 %84, 1
  store i32 %85, i32* %1, align 4
  br label %5

86:                                               ; preds = %5
  ret void
}

declare dso_local i32 @gets(...) #1

declare dso_local i32 @printf(i8*, ...) #1


!llvm.module.flags = !{!0}
!llvm.ident = !{!1}

!0 = !{i32 1, !"wchar_size", i32 4}
!1 = !{!"clang version 10.0.0-4ubuntu1 "}
